target datalayout = "e-m:e-p270:32:32-p271:32:32-p272:64:64-i64:64-i128:128-f80:128-n8:16:32:64-S128"
target triple = "x86_64-pc-linux-gnu"

%struct.SDL_AtomicInt = type { i32 }
%struct.SDL_GUID = type { [16 x i8] }
%struct.SDL_Joystick = type { i32, ptr, ptr, ptr, %struct.SDL_GUID, i16, i64, i8, i8, i32, ptr, i32, ptr, i32, ptr, i32, ptr, i32, ptr, i32, i32, ptr, i16, i16, i64, i64, i16, i16, i64, i64, i8, i8, i8, i64, i8, i32, i32, i32, i8, i32, ptr, i32, ptr, [3 x [3 x float]], i64, ptr, ptr, i32, i32, ptr }

@SDL_joysticks_initialized = internal global i8 0, align 1
@SDL_joystick_lock_pending = internal global %struct.SDL_AtomicInt zeroinitializer, align 4
@SDL_joystick_lock = internal global ptr null, align 8
@SDL_joysticks_locked = internal global i32 0, align 4
@.str.2 = private unnamed_addr constant [26 x i8] c"Parameter '%s' is invalid\00", align 1
@.str.3 = private unnamed_addr constant [9 x i8] c"joystick\00", align 1

; Function Attrs: nounwind uwtable
define hidden void @SDL_UnlockJoysticks_REAL() #0 {
  %1 = alloca i8, align 1
  %2 = alloca ptr, align 8
  call void @llvm.lifetime.start.p0(i64 1, ptr %1) #7
  store i8 0, ptr %1, align 1
  %3 = load i32, ptr @SDL_joysticks_locked, align 4
  %4 = add nsw i32 %3, -1
  store i32 %4, ptr @SDL_joysticks_locked, align 4
  %5 = load i8, ptr @SDL_joysticks_initialized, align 1, !range !3, !noundef !4
  %6 = trunc i8 %5 to i1
  br i1 %6, label %15, label %7

7:                                                ; preds = %0
  %8 = load i32, ptr @SDL_joysticks_locked, align 4
  %9 = icmp ne i32 %8, 0
  br i1 %9, label %14, label %10

10:                                               ; preds = %7
  %11 = call i32 @SDL_GetAtomicInt_REAL(ptr noundef @SDL_joystick_lock_pending)
  %12 = icmp eq i32 %11, 0
  br i1 %12, label %13, label %14

13:                                               ; preds = %10
  store i8 1, ptr %1, align 1
  br label %14

14:                                               ; preds = %13, %10, %7
  br label %15

15:                                               ; preds = %14, %0
  %16 = load i8, ptr %1, align 1, !range !3, !noundef !4
  %17 = trunc i8 %16 to i1
  br i1 %17, label %18, label %24

18:                                               ; preds = %15
  call void @llvm.lifetime.start.p0(i64 8, ptr %2) #7
  %19 = load ptr, ptr @SDL_joystick_lock, align 8
  store ptr %19, ptr %2, align 8
  %20 = load ptr, ptr %2, align 8
  call void @SDL_LockMutex_REAL(ptr noundef %20)
  %21 = load ptr, ptr @SDL_joystick_lock, align 8
  call void @SDL_UnlockMutex_REAL(ptr noundef %21)
  store ptr null, ptr @SDL_joystick_lock, align 8
  %22 = load ptr, ptr %2, align 8
  call void @SDL_UnlockMutex_REAL(ptr noundef %22)
  %23 = load ptr, ptr %2, align 8
  call void @SDL_DestroyMutex_REAL(ptr noundef %23)
  call void @llvm.lifetime.end.p0(i64 8, ptr %2) #7
  br label %26

24:                                               ; preds = %15
  %25 = load ptr, ptr @SDL_joystick_lock, align 8
  call void @SDL_UnlockMutex_REAL(ptr noundef %25)
  br label %26

26:                                               ; preds = %24, %18
  call void @llvm.lifetime.end.p0(i64 1, ptr %1) #7
  ret void
}

; Function Attrs: nounwind uwtable
define hidden void @SDL_LockJoysticks_REAL() #0 {
  %1 = call i32 @SDL_AddAtomicInt_REAL(ptr noundef @SDL_joystick_lock_pending, i32 noundef 1)
  %2 = load ptr, ptr @SDL_joystick_lock, align 8
  call void @SDL_LockMutex_REAL(ptr noundef %2)
  %3 = call i32 @SDL_AddAtomicInt_REAL(ptr noundef @SDL_joystick_lock_pending, i32 noundef -1)
  %4 = load i32, ptr @SDL_joysticks_locked, align 4
  %5 = add nsw i32 %4, 1
  store i32 %5, ptr @SDL_joysticks_locked, align 4
  ret void
}

; Function Attrs: nounwind uwtable
define hidden i32 @SDL_GetNumJoystickAxes_REAL(ptr noundef %0) #0 {
  %2 = alloca i32, align 4
  %3 = alloca ptr, align 8
  %4 = alloca i32, align 4
  %5 = alloca i32, align 4
  store ptr %0, ptr %3, align 8
  call void @llvm.lifetime.start.p0(i64 4, ptr %4) #7
  call void @SDL_LockJoysticks_REAL()
  %6 = load ptr, ptr %3, align 8
  %7 = call zeroext i1 @SDL_ObjectValid(ptr noundef %6, i32 noundef 4)
  br i1 %7, label %10, label %8

8:                                                ; preds = %1
  %9 = call zeroext i1 (ptr, ...) @SDL_SetError_REAL(ptr noundef @.str.2, ptr noundef @.str.3)
  call void @SDL_UnlockJoysticks_REAL()
  store i32 -1, ptr %2, align 4
  store i32 1, ptr %5, align 4
  br label %15

10:                                               ; preds = %1
  %11 = load ptr, ptr %3, align 8
  %12 = getelementptr inbounds nuw %struct.SDL_Joystick, ptr %11, i32 0, i32 9
  %13 = load i32, ptr %12, align 4
  store i32 %13, ptr %4, align 4
  call void @SDL_UnlockJoysticks_REAL()
  %14 = load i32, ptr %4, align 4
  store i32 %14, ptr %2, align 4
  store i32 1, ptr %5, align 4
  br label %15

15:                                               ; preds = %10, %8
  call void @llvm.lifetime.end.p0(i64 4, ptr %4) #7
  %16 = load i32, ptr %2, align 4
  ret i32 %16
}